target datalayout = "e-m:e-p270:32:32-p271:32:32-p272:64:64-i64:64-i128:128-f80:128-n8:16:32:64-S128"
target triple = "x86_64-pc-linux-gnu"

%struct.AVTextFormatContext = type { ptr, ptr, ptr, ptr, ptr, ptr, i32, i32, [12 x i32], [12 x [100 x i32]], [12 x ptr], [12 x %struct.AVBPrint], i32, i32, i32, i32, i32, ptr, i32, ptr, i32 }
%struct.AVBPrint = type { ptr, i32, i32, i32, [1 x i8], [1000 x i8] }
%struct.JSONContext = type { ptr, i32, i32, ptr, ptr }
%struct.AVTextFormatSection = type { i32, ptr, i32, [12 x i32], ptr, ptr, ptr, ptr, i32, ptr, ptr, ptr, ptr }
%struct.AVTextWriterContext = type { ptr, ptr, ptr, ptr }
%struct.AVTextWriter = type { ptr, i32, ptr, ptr, ptr, ptr, ptr, ptr }

@.str.11 = private unnamed_addr constant [4 x i8] c"%*c\00", align 1
@.str.16 = private unnamed_addr constant [36 x i8] c"Invalid section access at level %d\0A\00", align 1
@.str.21 = private unnamed_addr constant [6 x i8] c"\22%s\22:\00", align 1
@.str.22 = private unnamed_addr constant [6 x i8] c" \22%s\22\00", align 1

; Function Attrs: inlinehint nounwind uwtable
define internal void @json_print_item_str(ptr noundef %0, ptr noundef %1, ptr noundef %2) #4 {
  %4 = alloca ptr, align 8
  %5 = alloca ptr, align 8
  %6 = alloca ptr, align 8
  %7 = alloca %struct.AVBPrint, align 8
  store ptr %0, ptr %4, align 8, !tbaa !4
  store ptr %1, ptr %5, align 8, !tbaa !35
  store ptr %2, ptr %6, align 8, !tbaa !35
  call void @llvm.lifetime.start.p0(i64 1024, ptr %7) #7
  call void @av_bprint_init(ptr noundef %7, i32 noundef 1, i32 noundef -1)
  %8 = load ptr, ptr %4, align 8, !tbaa !4
  %9 = load ptr, ptr %5, align 8, !tbaa !35
  %10 = load ptr, ptr %4, align 8, !tbaa !4
  %11 = call ptr @json_escape_str(ptr noundef %7, ptr noundef %9, ptr noundef %10)
  call void (ptr, ptr, ...) @writer_printf(ptr noundef %8, ptr noundef @.str.21, ptr noundef %11)
  call void @av_bprint_clear(ptr noundef %7)
  %12 = load ptr, ptr %4, align 8, !tbaa !4
  %13 = load ptr, ptr %6, align 8, !tbaa !35
  %14 = load ptr, ptr %4, align 8, !tbaa !4
  %15 = call ptr @json_escape_str(ptr noundef %7, ptr noundef %13, ptr noundef %14)
  call void (ptr, ptr, ...) @writer_printf(ptr noundef %12, ptr noundef @.str.22, ptr noundef %15)
  %16 = call i32 @av_bprint_finalize(ptr noundef %7, ptr noundef null)
  call void @llvm.lifetime.end.p0(i64 1024, ptr %7) #7
  ret void
}

; Function Attrs: inlinehint nounwind uwtable
define internal void @writer_put_str(ptr noundef %0, ptr noundef %1) #4 {
  %3 = alloca ptr, align 8
  %4 = alloca ptr, align 8
  store ptr %0, ptr %3, align 8, !tbaa !4
  store ptr %1, ptr %4, align 8, !tbaa !35
  %5 = load ptr, ptr %3, align 8, !tbaa !4
  %6 = getelementptr inbounds nuw %struct.AVTextFormatContext, ptr %5, i32 0, i32 2
  %7 = load ptr, ptr %6, align 8, !tbaa !38
  %8 = getelementptr inbounds nuw %struct.AVTextWriterContext, ptr %7, i32 0, i32 1
  %9 = load ptr, ptr %8, align 8, !tbaa !39
  %10 = getelementptr inbounds nuw %struct.AVTextWriter, ptr %9, i32 0, i32 6
  %11 = load ptr, ptr %10, align 8, !tbaa !42
  %12 = load ptr, ptr %3, align 8, !tbaa !4
  %13 = getelementptr inbounds nuw %struct.AVTextFormatContext, ptr %12, i32 0, i32 2
  %14 = load ptr, ptr %13, align 8, !tbaa !38
  %15 = load ptr, ptr %4, align 8, !tbaa !35
  call void %11(ptr noundef %14, ptr noundef %15)
  ret void
}

; Function Attrs: inlinehint nounwind uwtable
define internal ptr @tf_get_parent_section(ptr noundef %0, i32 noundef %1) #4 {
  %3 = alloca ptr, align 8
  %4 = alloca ptr, align 8
  %5 = alloca i32, align 4
  store ptr %0, ptr %4, align 8, !tbaa !4
  store i32 %1, ptr %5, align 4, !tbaa !27
  %6 = load i32, ptr %5, align 4, !tbaa !27
  %7 = icmp sle i32 %6, 0
  br i1 %7, label %8, label %9

8:                                                ; preds = %2
  store ptr null, ptr %3, align 8
  br label %14

9:                                                ; preds = %2
  %10 = load ptr, ptr %4, align 8, !tbaa !4
  %11 = load i32, ptr %5, align 4, !tbaa !27
  %12 = sub nsw i32 %11, 1
  %13 = call ptr @tf_get_section(ptr noundef %10, i32 noundef %12)
  store ptr %13, ptr %3, align 8
  br label %14

14:                                               ; preds = %9, %8
  %15 = load ptr, ptr %3, align 8
  ret ptr %15
}

; Function Attrs: inlinehint nounwind uwtable
define internal ptr @tf_get_section(ptr noundef %0, i32 noundef %1) #4 {
  %3 = alloca ptr, align 8
  %4 = alloca ptr, align 8
  %5 = alloca i32, align 4
  store ptr %0, ptr %4, align 8, !tbaa !4
  store i32 %1, ptr %5, align 4, !tbaa !27
  %6 = load ptr, ptr %4, align 8, !tbaa !4
  %7 = icmp ne ptr %6, null
  br i1 %7, label %8, label %22

8:                                                ; preds = %2
  %9 = load i32, ptr %5, align 4, !tbaa !27
  %10 = icmp slt i32 %9, 0
  br i1 %10, label %22, label %11

11:                                               ; preds = %8
  %12 = load i32, ptr %5, align 4, !tbaa !27
  %13 = icmp sge i32 %12, 12
  br i1 %13, label %22, label %14

14:                                               ; preds = %11
  %15 = load ptr, ptr %4, align 8, !tbaa !4
  %16 = getelementptr inbounds nuw %struct.AVTextFormatContext, ptr %15, i32 0, i32 10
  %17 = load i32, ptr %5, align 4, !tbaa !27
  %18 = sext i32 %17 to i64
  %19 = getelementptr inbounds [12 x ptr], ptr %16, i64 0, i64 %18
  %20 = load ptr, ptr %19, align 8, !tbaa !26
  %21 = icmp ne ptr %20, null
  br i1 %21, label %29, label %22

22:                                               ; preds = %14, %11, %8, %2
  %23 = load ptr, ptr %4, align 8, !tbaa !4
  %24 = icmp ne ptr %23, null
  br i1 %24, label %25, label %28

25:                                               ; preds = %22
  %26 = load ptr, ptr %4, align 8, !tbaa !4
  %27 = load i32, ptr %5, align 4, !tbaa !27
  call void (ptr, i32, ptr, ...) @av_log(ptr noundef %26, i32 noundef 16, ptr noundef @.str.16, i32 noundef %27)
  br label %28

28:                                               ; preds = %25, %22
  store ptr null, ptr %3, align 8
  br label %36

29:                                               ; preds = %14
  %30 = load ptr, ptr %4, align 8, !tbaa !4
  %31 = getelementptr inbounds nuw %struct.AVTextFormatContext, ptr %30, i32 0, i32 10
  %32 = load i32, ptr %5, align 4, !tbaa !27
  %33 = sext i32 %32 to i64
  %34 = getelementptr inbounds [12 x ptr], ptr %31, i64 0, i64 %33
  %35 = load ptr, ptr %34, align 8, !tbaa !26
  store ptr %35, ptr %3, align 8
  br label %36

36:                                               ; preds = %29, %28
  %37 = load ptr, ptr %3, align 8
  ret ptr %37
}

; Function Attrs: nounwind uwtable
define internal void @json_print_str(ptr noundef %0, ptr noundef %1, ptr noundef %2) #1 {
  %4 = alloca ptr, align 8
  %5 = alloca ptr, align 8
  %6 = alloca ptr, align 8
  %7 = alloca ptr, align 8
  %8 = alloca ptr, align 8
  %9 = alloca ptr, align 8
  %10 = alloca i32, align 4
  store ptr %0, ptr %4, align 8, !tbaa !4
  store ptr %1, ptr %5, align 8, !tbaa !35
  store ptr %2, ptr %6, align 8, !tbaa !35
  call void @llvm.lifetime.start.p0(i64 8, ptr %7) #7
  %11 = load ptr, ptr %4, align 8, !tbaa !4
  %12 = load ptr, ptr %4, align 8, !tbaa !4
  %13 = getelementptr inbounds nuw %struct.AVTextFormatContext, ptr %12, i32 0, i32 7
  %14 = load i32, ptr %13, align 4, !tbaa !25
  %15 = call ptr @tf_get_section(ptr noundef %11, i32 noundef %14)
  store ptr %15, ptr %7, align 8, !tbaa !26
  call void @llvm.lifetime.start.p0(i64 8, ptr %8) #7
  %16 = load ptr, ptr %4, align 8, !tbaa !4
  %17 = load ptr, ptr %4, align 8, !tbaa !4
  %18 = getelementptr inbounds nuw %struct.AVTextFormatContext, ptr %17, i32 0, i32 7
  %19 = load i32, ptr %18, align 4, !tbaa !25
  %20 = call ptr @tf_get_parent_section(ptr noundef %16, i32 noundef %19)
  store ptr %20, ptr %8, align 8, !tbaa !26
  call void @llvm.lifetime.start.p0(i64 8, ptr %9) #7
  %21 = load ptr, ptr %4, align 8, !tbaa !4
  %22 = getelementptr inbounds nuw %struct.AVTextFormatContext, ptr %21, i32 0, i32 4
  %23 = load ptr, ptr %22, align 8, !tbaa !9
  store ptr %23, ptr %9, align 8, !tbaa !18
  %24 = load ptr, ptr %7, align 8, !tbaa !26
  %25 = icmp ne ptr %24, null
  br i1 %25, label %27, label %26

26:                                               ; preds = %3
  store i32 1, ptr %10, align 4
  br label %66

27:                                               ; preds = %3
  %28 = load ptr, ptr %4, align 8, !tbaa !4
  %29 = getelementptr inbounds nuw %struct.AVTextFormatContext, ptr %28, i32 0, i32 8
  %30 = load ptr, ptr %4, align 8, !tbaa !4
  %31 = getelementptr inbounds nuw %struct.AVTextFormatContext, ptr %30, i32 0, i32 7
  %32 = load i32, ptr %31, align 4, !tbaa !25
  %33 = sext i32 %32 to i64
  %34 = getelementptr inbounds [12 x i32], ptr %29, i64 0, i64 %33
  %35 = load i32, ptr %34, align 4, !tbaa !27
  %36 = icmp ne i32 %35, 0
  br i1 %36, label %46, label %37

37:                                               ; preds = %27
  %38 = load ptr, ptr %8, align 8, !tbaa !26
  %39 = icmp ne ptr %38, null
  br i1 %39, label %40, label %51

40:                                               ; preds = %37
  %41 = load ptr, ptr %8, align 8, !tbaa !26
  %42 = getelementptr inbounds nuw %struct.AVTextFormatSection, ptr %41, i32 0, i32 2
  %43 = load i32, ptr %42, align 8, !tbaa !28
  %44 = and i32 %43, 16
  %45 = icmp ne i32 %44, 0
  br i1 %45, label %46, label %51

46:                                               ; preds = %40, %27
  %47 = load ptr, ptr %4, align 8, !tbaa !4
  %48 = load ptr, ptr %9, align 8, !tbaa !18
  %49 = getelementptr inbounds nuw %struct.JSONContext, ptr %48, i32 0, i32 3
  %50 = load ptr, ptr %49, align 8, !tbaa !22
  call void @writer_put_str(ptr noundef %47, ptr noundef %50)
  br label %51

51:                                               ; preds = %46, %40, %37
  %52 = load ptr, ptr %9, align 8, !tbaa !18
  %53 = getelementptr inbounds nuw %struct.JSONContext, ptr %52, i32 0, i32 2
  %54 = load i32, ptr %53, align 4, !tbaa !20
  %55 = icmp ne i32 %54, 0
  br i1 %55, label %62, label %56

56:                                               ; preds = %51
  %57 = load ptr, ptr %4, align 8, !tbaa !4
  %58 = load ptr, ptr %9, align 8, !tbaa !18
  %59 = getelementptr inbounds nuw %struct.JSONContext, ptr %58, i32 0, i32 1
  %60 = load i32, ptr %59, align 8, !tbaa !31
  %61 = mul nsw i32 %60, 4
  call void (ptr, ptr, ...) @writer_printf(ptr noundef %57, ptr noundef @.str.11, i32 noundef %61, i32 noundef 32)
  br label %62

62:                                               ; preds = %56, %51
  %63 = load ptr, ptr %4, align 8, !tbaa !4
  %64 = load ptr, ptr %5, align 8, !tbaa !35
  %65 = load ptr, ptr %6, align 8, !tbaa !35
  call void @json_print_item_str(ptr noundef %63, ptr noundef %64, ptr noundef %65)
  store i32 0, ptr %10, align 4
  br label %66

66:                                               ; preds = %62, %26
  call void @llvm.lifetime.end.p0(i64 8, ptr %9) #7
  call void @llvm.lifetime.end.p0(i64 8, ptr %8) #7
  call void @llvm.lifetime.end.p0(i64 8, ptr %7) #7
  %67 = load i32, ptr %10, align 4
  switch i32 %67, label %69 [
    i32 0, label %68
    i32 1, label %68
  ]

68:                                               ; preds = %66, %66
  ret void

69:                                               ; preds = %66
  unreachable
}