; Function Attrs: nounwind uwtable
define internal void @json_print_str(ptr noundef %0, ptr noundef readonly captures(address_is_null) %1, ptr noundef readonly captures(address_is_null) %2) #1 {
  %4 = alloca %struct.AVBPrint, align 8
  %5 = getelementptr inbounds nuw i8, ptr %0, i64 52
  %6 = load i32, ptr %5, align 4, !tbaa !20
  %7 = icmp eq ptr %0, null
  %8 = icmp ugt i32 %6, 11
  %or.cond3.i = or i1 %7, %8
  br i1 %or.cond3.i, label %.thread.i, label %9

9:                                                ; preds = %3
  %10 = getelementptr inbounds nuw i8, ptr %0, i64 4904
  %11 = zext nneg i32 %6 to i64
  %12 = getelementptr inbounds nuw [12 x ptr], ptr %10, i64 0, i64 %11
  %13 = load ptr, ptr %12, align 8, !tbaa !21
  %.not.i = icmp eq ptr %13, null
  br i1 %.not.i, label %.thread.i, label %tf_get_section.exit

.thread.i:                                        ; preds = %3, %9
  tail call void (ptr, i32, ptr, ...) @av_log(ptr noundef nonnull %0, i32 noundef 16, ptr noundef nonnull @.str.16, i32 noundef %6) #7
  %.pre = load i32, ptr %5, align 4, !tbaa !20
  br label %tf_get_section.exit

tf_get_section.exit:                              ; preds = %9, %.thread.i
  %14 = phi i32 [ %.pre, %.thread.i ], [ %6, %9 ]
  %.0.i = phi i1 [ true, %.thread.i ], [ false, %9 ]
  %15 = icmp slt i32 %14, 1
  br i1 %15, label %tf_get_parent_section.exit, label %16

16:                                               ; preds = %tf_get_section.exit
  %17 = add nsw i32 %14, -1
  %18 = icmp samesign ugt i32 %17, 11
  %or.cond3.i.i = or i1 %7, %18
  br i1 %or.cond3.i.i, label %.thread.i.i, label %19

19:                                               ; preds = %16
  %20 = getelementptr inbounds nuw i8, ptr %0, i64 4904
  %21 = zext nneg i32 %17 to i64
  %22 = getelementptr inbounds nuw [12 x ptr], ptr %20, i64 0, i64 %21
  %23 = load ptr, ptr %22, align 8, !tbaa !21
  %.not.i.i = icmp eq ptr %23, null
  br i1 %.not.i.i, label %.thread.i.i, label %tf_get_parent_section.exit

.thread.i.i:                                      ; preds = %16, %19
  tail call void (ptr, i32, ptr, ...) @av_log(ptr noundef nonnull %0, i32 noundef 16, ptr noundef nonnull @.str.16, i32 noundef %17) #7
  br label %tf_get_parent_section.exit

tf_get_parent_section.exit:                       ; preds = %tf_get_section.exit, %19, %.thread.i.i
  %.0.i22 = phi ptr [ null, %tf_get_section.exit ], [ null, %.thread.i.i ], [ %23, %19 ]
  %24 = getelementptr inbounds nuw i8, ptr %0, i64 32
  %25 = load ptr, ptr %24, align 8, !tbaa !4
  br i1 %.0.i, label %56, label %26

26:                                               ; preds = %tf_get_parent_section.exit
  %27 = getelementptr inbounds nuw i8, ptr %0, i64 56
  %28 = load i32, ptr %5, align 4, !tbaa !20
  %29 = sext i32 %28 to i64
  %30 = getelementptr inbounds [12 x i32], ptr %27, i64 0, i64 %29
  %31 = load i32, ptr %30, align 4, !tbaa !22
  %.not18 = icmp eq i32 %31, 0
  br i1 %.not18, label %32, label %37

32:                                               ; preds = %26
  %.not19 = icmp eq ptr %.0.i22, null
  br i1 %.not19, label %45, label %33

33:                                               ; preds = %32
  %34 = getelementptr inbounds nuw i8, ptr %.0.i22, i64 16
  %35 = load i32, ptr %34, align 8, !tbaa !29
  %36 = and i32 %35, 16
  %.not20 = icmp eq i32 %36, 0
  br i1 %.not20, label %45, label %37

37:                                               ; preds = %33, %26
  %38 = getelementptr inbounds nuw i8, ptr %25, i64 16
  %39 = load ptr, ptr %38, align 8, !tbaa !18
  %40 = getelementptr i8, ptr %0, i64 16
  %.val = load ptr, ptr %40, align 8, !tbaa !23
  %41 = getelementptr inbounds nuw i8, ptr %.val, i64 8
  %42 = load ptr, ptr %41, align 8, !tbaa !24
  %43 = getelementptr inbounds nuw i8, ptr %42, i64 48
  %44 = load ptr, ptr %43, align 8, !tbaa !27
  tail call void %44(ptr noundef %.val, ptr noundef %39) #7
  br label %45

45:                                               ; preds = %37, %33, %32
  %46 = getelementptr inbounds nuw i8, ptr %25, i64 12
  %47 = load i32, ptr %46, align 4, !tbaa !16
  %.not21 = icmp eq i32 %47, 0
  br i1 %.not21, label %48, label %52

48:                                               ; preds = %45
  %49 = getelementptr inbounds nuw i8, ptr %25, i64 8
  %50 = load i32, ptr %49, align 8, !tbaa !32
  %51 = shl nsw i32 %50, 2
  tail call void (ptr, ptr, ...) @writer_printf(ptr noundef nonnull %0, ptr noundef nonnull @.str.11, i32 noundef %51, i32 noundef 32)
  br label %52

52:                                               ; preds = %48, %45
  call void @llvm.lifetime.start.p0(i64 1024, ptr nonnull %4) #7
  call void @av_bprint_init(ptr noundef nonnull %4, i32 noundef 1, i32 noundef -1) #7
  %53 = call fastcc ptr @json_escape_str(ptr noundef %4, ptr noundef readonly %1, ptr noundef nonnull %0)
  call void (ptr, ptr, ...) @writer_printf(ptr noundef nonnull %0, ptr noundef nonnull @.str.21, ptr noundef %53)
  call void @av_bprint_clear(ptr noundef nonnull %4) #7
  %54 = call fastcc ptr @json_escape_str(ptr noundef %4, ptr noundef readonly %2, ptr noundef nonnull %0)
  call void (ptr, ptr, ...) @writer_printf(ptr noundef nonnull %0, ptr noundef nonnull @.str.22, ptr noundef %54)
  %55 = call i32 @av_bprint_finalize(ptr noundef nonnull %4, ptr noundef null) #7
  call void @llvm.lifetime.end.p0(i64 1024, ptr nonnull %4) #7
  br label %56

56:                                               ; preds = %tf_get_parent_section.exit, %52
  ret void
}